target datalayout = "e-m:e-p270:32:32-p271:32:32-p272:64:64-i64:64-i128:128-f80:128-n8:16:32:64-S128"
target triple = "x86_64-pc-linux-gnu"

%struct.Map_HashTableStruct_t_ = type { ptr, i32, i32, ptr }
%struct.Map_HashEntryStruct_t_ = type { [2 x i32], i32, ptr, ptr }

; Function Attrs: nounwind uwtable
define internal i32 @Abc_PrimeCudd(i32 noundef %0) #0 {
  %2 = alloca i32, align 4
  %3 = alloca i32, align 4
  %4 = alloca i32, align 4
  store i32 %0, ptr %2, align 4
  %5 = load i32, ptr %2, align 4
  %6 = add i32 %5, -1
  store i32 %6, ptr %2, align 4
  br label %7

7:                                                ; preds = %32, %1
  %8 = load i32, ptr %2, align 4
  %9 = add i32 %8, 1
  store i32 %9, ptr %2, align 4
  %10 = load i32, ptr %2, align 4
  %11 = and i32 %10, 1
  %12 = icmp ne i32 %11, 0
  br i1 %12, label %13, label %30

13:                                               ; preds = %7
  store i32 1, ptr %4, align 4
  store i32 3, ptr %3, align 4
  br label %14

14:                                               ; preds = %26, %13
  %15 = load i32, ptr %3, align 4
  %16 = load i32, ptr %3, align 4
  %17 = mul nsw i32 %15, %16
  %18 = load i32, ptr %2, align 4
  %19 = icmp ule i32 %17, %18
  br i1 %19, label %20, label %29

20:                                               ; preds = %14
  %21 = load i32, ptr %2, align 4
  %22 = load i32, ptr %3, align 4
  %23 = urem i32 %21, %22
  %24 = icmp eq i32 %23, 0
  br i1 %24, label %25, label %26

25:                                               ; preds = %20
  store i32 0, ptr %4, align 4
  br label %29

26:                                               ; preds = %20
  %27 = load i32, ptr %3, align 4
  %28 = add nsw i32 %27, 2
  store i32 %28, ptr %3, align 4
  br label %14, !llvm.loop !4

29:                                               ; preds = %25, %14
  br label %31

30:                                               ; preds = %7
  store i32 0, ptr %4, align 4
  br label %31

31:                                               ; preds = %30, %29
  br label %32

32:                                               ; preds = %31
  %33 = load i32, ptr %4, align 4
  %34 = icmp ne i32 %33, 0
  %35 = xor i1 %34, true
  br i1 %35, label %7, label %36, !llvm.loop !6

36:                                               ; preds = %32
  %37 = load i32, ptr %2, align 4
  ret i32 %37
}

; Function Attrs: nounwind uwtable
define internal void @Map_SuperTableResize(ptr noundef %0) #0 {
  %2 = alloca ptr, align 8
  %3 = alloca ptr, align 8
  %4 = alloca ptr, align 8
  %5 = alloca ptr, align 8
  %6 = alloca i32, align 4
  %7 = alloca i32, align 4
  %8 = alloca i32, align 4
  %9 = alloca i32, align 4
  store ptr %0, ptr %2, align 8
  %10 = load ptr, ptr %2, align 8
  %11 = getelementptr inbounds %struct.Map_HashTableStruct_t_, ptr %10, i32 0, i32 1
  %12 = load i32, ptr %11, align 8
  %13 = mul nsw i32 2, %12
  %14 = call i32 @Abc_PrimeCudd(i32 noundef %13)
  store i32 %14, ptr %6, align 4
  %15 = load i32, ptr %6, align 4
  %16 = sext i32 %15 to i64
  %17 = mul i64 8, %16
  %18 = call noalias ptr @malloc(i64 noundef %17) #5
  store ptr %18, ptr %3, align 8
  %19 = load ptr, ptr %3, align 8
  %20 = load i32, ptr %6, align 4
  %21 = sext i32 %20 to i64
  %22 = mul i64 8, %21
  call void @llvm.memset.p0.i64(ptr align 8 %19, i8 0, i64 %22, i1 false)
  store i32 0, ptr %7, align 4
  store i32 0, ptr %8, align 4
  br label %23

23:                                               ; preds = %88, %1
  %24 = load i32, ptr %8, align 4
  %25 = load ptr, ptr %2, align 8
  %26 = getelementptr inbounds %struct.Map_HashTableStruct_t_, ptr %25, i32 0, i32 1
  %27 = load i32, ptr %26, align 8
  %28 = icmp slt i32 %24, %27
  br i1 %28, label %29, label %91

29:                                               ; preds = %23
  %30 = load ptr, ptr %2, align 8
  %31 = getelementptr inbounds %struct.Map_HashTableStruct_t_, ptr %30, i32 0, i32 0
  %32 = load ptr, ptr %31, align 8
  %33 = load i32, ptr %8, align 4
  %34 = sext i32 %33 to i64
  %35 = getelementptr inbounds ptr, ptr %32, i64 %34
  %36 = load ptr, ptr %35, align 8
  store ptr %36, ptr %4, align 8
  %37 = load ptr, ptr %4, align 8
  %38 = icmp ne ptr %37, null
  br i1 %38, label %39, label %43

39:                                               ; preds = %29
  %40 = load ptr, ptr %4, align 8
  %41 = getelementptr inbounds %struct.Map_HashEntryStruct_t_, ptr %40, i32 0, i32 3
  %42 = load ptr, ptr %41, align 8
  br label %44

43:                                               ; preds = %29
  br label %44

44:                                               ; preds = %43, %39
  %45 = phi ptr [ %42, %39 ], [ null, %43 ]
  store ptr %45, ptr %5, align 8
  br label %46

46:                                               ; preds = %85, %44
  %47 = load ptr, ptr %4, align 8
  %48 = icmp ne ptr %47, null
  br i1 %48, label %49, label %87

49:                                               ; preds = %46
  %50 = load ptr, ptr %4, align 8
  %51 = getelementptr inbounds %struct.Map_HashEntryStruct_t_, ptr %50, i32 0, i32 0
  %52 = getelementptr inbounds [2 x i32], ptr %51, i64 0, i64 0
  %53 = load i32, ptr %52, align 8
  %54 = load ptr, ptr %4, align 8
  %55 = getelementptr inbounds %struct.Map_HashEntryStruct_t_, ptr %54, i32 0, i32 0
  %56 = getelementptr inbounds [2 x i32], ptr %55, i64 0, i64 1
  %57 = load i32, ptr %56, align 4
  %58 = mul i32 2003, %57
  %59 = add i32 %53, %58
  %60 = load i32, ptr %6, align 4
  %61 = urem i32 %59, %60
  store i32 %61, ptr %9, align 4
  %62 = load ptr, ptr %3, align 8
  %63 = load i32, ptr %9, align 4
  %64 = zext i32 %63 to i64
  %65 = getelementptr inbounds ptr, ptr %62, i64 %64
  %66 = load ptr, ptr %65, align 8
  %67 = load ptr, ptr %4, align 8
  %68 = getelementptr inbounds %struct.Map_HashEntryStruct_t_, ptr %67, i32 0, i32 3
  store ptr %66, ptr %68, align 8
  %69 = load ptr, ptr %4, align 8
  %70 = load ptr, ptr %3, align 8
  %71 = load i32, ptr %9, align 4
  %72 = zext i32 %71 to i64
  %73 = getelementptr inbounds ptr, ptr %70, i64 %72
  store ptr %69, ptr %73, align 8
  %74 = load i32, ptr %7, align 4
  %75 = add nsw i32 %74, 1
  store i32 %75, ptr %7, align 4
  br label %76

76:                                               ; preds = %49
  %77 = load ptr, ptr %5, align 8
  store ptr %77, ptr %4, align 8
  %78 = load ptr, ptr %4, align 8
  %79 = icmp ne ptr %78, null
  br i1 %79, label %80, label %84

80:                                               ; preds = %76
  %81 = load ptr, ptr %4, align 8
  %82 = getelementptr inbounds %struct.Map_HashEntryStruct_t_, ptr %81, i32 0, i32 3
  %83 = load ptr, ptr %82, align 8
  br label %85

84:                                               ; preds = %76
  br label %85

85:                                               ; preds = %84, %80
  %86 = phi ptr [ %83, %80 ], [ null, %84 ]
  store ptr %86, ptr %5, align 8
  br label %46, !llvm.loop !8

87:                                               ; preds = %46
  br label %88

88:                                               ; preds = %87
  %89 = load i32, ptr %8, align 4
  %90 = add nsw i32 %89, 1
  store i32 %90, ptr %8, align 4
  br label %23, !llvm.loop !9

91:                                               ; preds = %23
  %92 = load ptr, ptr %2, align 8
  %93 = getelementptr inbounds %struct.Map_HashTableStruct_t_, ptr %92, i32 0, i32 0
  %94 = load ptr, ptr %93, align 8
  %95 = icmp ne ptr %94, null
  br i1 %95, label %96, label %102

96:                                               ; preds = %91
  %97 = load ptr, ptr %2, align 8
  %98 = getelementptr inbounds %struct.Map_HashTableStruct_t_, ptr %97, i32 0, i32 0
  %99 = load ptr, ptr %98, align 8
  call void @free(ptr noundef %99) #6
  %100 = load ptr, ptr %2, align 8
  %101 = getelementptr inbounds %struct.Map_HashTableStruct_t_, ptr %100, i32 0, i32 0
  store ptr null, ptr %101, align 8
  br label %103

102:                                              ; preds = %91
  br label %103

103:                                              ; preds = %102, %96
  %104 = load ptr, ptr %3, align 8
  %105 = load ptr, ptr %2, align 8
  %106 = getelementptr inbounds %struct.Map_HashTableStruct_t_, ptr %105, i32 0, i32 0
  store ptr %104, ptr %106, align 8
  %107 = load i32, ptr %6, align 4
  %108 = load ptr, ptr %2, align 8
  %109 = getelementptr inbounds %struct.Map_HashTableStruct_t_, ptr %108, i32 0, i32 1
  store i32 %107, ptr %109, align 8
  ret void
}