; Function Attrs: nounwind uwtable
define internal fastcc void @Map_SuperTableResize(ptr noundef captures(none) %0) unnamed_addr #5 {
  %2 = getelementptr inbounds nuw i8, ptr %0, i64 8
  %3 = load i32, ptr %2, align 8
  %4 = shl nsw i32 %3, 1
  %5 = add i32 %4, -1
  br label %.loopexit.i

.loopexit.i:                                      ; preds = %.loopexit.i.backedge, %1
  %.012.i = phi i32 [ %5, %1 ], [ %6, %.loopexit.i.backedge ]
  %6 = add i32 %.012.i, 1
  %7 = and i32 %.012.i, 1
  %.not.not.i = icmp eq i32 %7, 0
  br i1 %.not.not.i, label %.preheader.i, label %.loopexit.i.backedge

.loopexit.i.backedge:                             ; preds = %.lr.ph.i, %.loopexit.i
  br label %.loopexit.i, !llvm.loop !4

.preheader.i:                                     ; preds = %.loopexit.i
  %.not15.i = icmp ult i32 %6, 9
  br i1 %.not15.i, label %Abc_PrimeCudd.exit, label %.lr.ph.i

8:                                                ; preds = %.lr.ph.i
  %9 = add nuw nsw i32 %.01116.i, 2
  %10 = mul nuw nsw i32 %9, %9
  %.not.i = icmp ugt i32 %10, %6
  br i1 %.not.i, label %Abc_PrimeCudd.exit, label %.lr.ph.i, !llvm.loop !6

.lr.ph.i:                                         ; preds = %.preheader.i, %8
  %.01116.i = phi i32 [ %9, %8 ], [ 3, %.preheader.i ]
  %11 = urem i32 %6, %.01116.i
  %12 = icmp eq i32 %11, 0
  br i1 %12, label %.loopexit.i.backedge, label %8, !llvm.loop !4

Abc_PrimeCudd.exit:                               ; preds = %.preheader.i, %8
  %13 = sext i32 %6 to i64
  %14 = shl nsw i64 %13, 3
  %calloc = tail call ptr @calloc(i64 1, i64 %14)
  %15 = icmp sgt i32 %3, 0
  br i1 %15, label %.lr.ph47, label %._crit_edge48

.lr.ph47:                                         ; preds = %Abc_PrimeCudd.exit, %._crit_edge
  %16 = phi i32 [ %32, %._crit_edge ], [ %3, %Abc_PrimeCudd.exit ]
  %indvars.iv = phi i64 [ %indvars.iv.next, %._crit_edge ], [ 0, %Abc_PrimeCudd.exit ]
  %17 = load ptr, ptr %0, align 8
  %18 = getelementptr inbounds nuw ptr, ptr %17, i64 %indvars.iv
  %19 = load ptr, ptr %18, align 8
  %.not36 = icmp eq ptr %19, null
  br i1 %.not36, label %._crit_edge, label %.lr.ph

.lr.ph:                                           ; preds = %.lr.ph47, %.lr.ph
  %.sink56 = phi ptr [ %21, %.lr.ph ], [ %19, %.lr.ph47 ]
  %20 = getelementptr inbounds nuw i8, ptr %.sink56, i64 24
  %21 = load ptr, ptr %20, align 8
  %22 = load i32, ptr %.sink56, align 8
  %23 = getelementptr inbounds nuw i8, ptr %.sink56, i64 4
  %24 = load i32, ptr %23, align 4
  %25 = mul i32 %24, 2003
  %26 = add i32 %25, %22
  %27 = urem i32 %26, %6
  %28 = zext i32 %27 to i64
  %29 = getelementptr inbounds nuw ptr, ptr %calloc, i64 %28
  %30 = load ptr, ptr %29, align 8
  %31 = getelementptr inbounds nuw i8, ptr %.sink56, i64 24
  store ptr %30, ptr %31, align 8
  store ptr %.sink56, ptr %29, align 8
  %.not38 = icmp eq ptr %21, null
  br i1 %.not38, label %._crit_edge.loopexit, label %.lr.ph, !llvm.loop !8

._crit_edge.loopexit:                             ; preds = %.lr.ph
  %.pre = load i32, ptr %2, align 8
  br label %._crit_edge

._crit_edge:                                      ; preds = %.lr.ph47, %._crit_edge.loopexit
  %32 = phi i32 [ %.pre, %._crit_edge.loopexit ], [ %16, %.lr.ph47 ]
  %indvars.iv.next = add nuw nsw i64 %indvars.iv, 1
  %33 = sext i32 %32 to i64
  %34 = icmp slt i64 %indvars.iv.next, %33
  br i1 %34, label %.lr.ph47, label %._crit_edge48, !llvm.loop !9

._crit_edge48:                                    ; preds = %._crit_edge, %Abc_PrimeCudd.exit
  %35 = load ptr, ptr %0, align 8
  %.not = icmp eq ptr %35, null
  br i1 %.not, label %37, label %36

36:                                               ; preds = %._crit_edge48
  tail call void @free(ptr noundef nonnull %35) #15
  br label %37

37:                                               ; preds = %._crit_edge48, %36
  store ptr %calloc, ptr %0, align 8
  store i32 %6, ptr %2, align 8
  ret void
}